
.\rom_0x08000000.elf:     file format elf32-littlearm
.\rom_0x08000000.elf
architecture: arm, flags 0x00000112:
EXEC_P, HAS_SYMS, D_PAGED
start address 0x08000000

Program Header:
    LOAD off    0x00008000 vaddr 0x08000000 paddr 0x08000000 align 2**15
         filesz 0x000000d8 memsz 0x000000d8 flags r-x
private flags = 5000202: [Version5 EABI] [soft-float ABI] [has entry point]

Sections:
Idx Name          Size      VMA       LMA       File off  Algn
  0 .text         000000d8  08000000  08000000  00008000  2**2
                  CONTENTS, ALLOC, LOAD, READONLY, CODE
  1 .debug_info   000000bb  00000000  00000000  000080d8  2**0
                  CONTENTS, READONLY, DEBUGGING
  2 .debug_abbrev 00000063  00000000  00000000  00008193  2**0
                  CONTENTS, READONLY, DEBUGGING
  3 .debug_aranges 00000040  00000000  00000000  000081f8  2**3
                  CONTENTS, READONLY, DEBUGGING
  4 .debug_line   000000b9  00000000  00000000  00008238  2**0
                  CONTENTS, READONLY, DEBUGGING
  5 .debug_str    000000d9  00000000  00000000  000082f1  2**0
                  CONTENTS, READONLY, DEBUGGING
  6 .comment      00000030  00000000  00000000  000083ca  2**0
                  CONTENTS, READONLY
  7 .ARM.attributes 00000031  00000000  00000000  000083fa  2**0
                  CONTENTS, READONLY
  8 .debug_frame  0000002c  00000000  00000000  0000842c  2**2
                  CONTENTS, READONLY, DEBUGGING
SYMBOL TABLE:
08000000 l    d  .text	00000000 .text
00000000 l    d  .debug_info	00000000 .debug_info
00000000 l    d  .debug_abbrev	00000000 .debug_abbrev
00000000 l    d  .debug_aranges	00000000 .debug_aranges
00000000 l    d  .debug_line	00000000 .debug_line
00000000 l    d  .debug_str	00000000 .debug_str
00000000 l    d  .comment	00000000 .comment
00000000 l    d  .ARM.attributes	00000000 .ARM.attributes
00000000 l    d  .debug_frame	00000000 .debug_frame
00000000 l    df *ABS*	00000000 crt0.o
00000000 l    df *ABS*	00000000 main.c
00000000 l    df *ABS*	00000000 
08000048 g     F .text	0000008e Main
20000000 g       .text	00000000 __RW_BASE__
20000000 g       .text	00000000 __RW_LIMIT__
08000008 g     F .text	00000000 __start
00000000 g       *ABS*	00000000 __RW_SIZE__
080000d8 g       *ABS*	00000000 __RW_LOAD_ADDR__
08000000 g       .text	00000000 __RO_BASE__
20000000 g       .text	00000000 __ZI_LIMIT__
080000d8 g       .text	00000000 __RO_LIMIT__
00000000 g       *ABS*	00000000 __ZI_SIZE__
20000000 g       .text	00000000 __ZI_BASE__



Disassembly of section .text:

08000000 <__RO_BASE__>:
 8000000:	20005000 	andcs	r5, r0, r0
 8000004:	08000009 	stmdaeq	r0, {r0, r3}

08000008 <__start>:
	.extern __RO_LIMIT__
	.extern __RW_BASE__
	.extern __ZI_BASE__
	.extern __ZI_LIMIT__

	ldr		r0, =__RO_LIMIT__
 8000008:	480b      	ldr	r0, [pc, #44]	; (8000038 <__start+0x30>)
	ldr		r1, =__RW_BASE__
 800000a:	490c      	ldr	r1, [pc, #48]	; (800003c <__start+0x34>)
	ldr		r3, =__ZI_BASE__
 800000c:	4b0c      	ldr	r3, [pc, #48]	; (8000040 <__start+0x38>)

	cmp		r0, r1
 800000e:	4288      	cmp	r0, r1
	beq		2f
 8000010:	d006      	beq.n	8000020 <__start+0x18>

1:

	@ RW 복사 코드 작성
	cmp		r1, r3
 8000012:	4299      	cmp	r1, r3
	@ unsigned (address)
	itt		lo
 8000014:	bf3c      	itt	cc
	ldrlo	r2, [r0], #4 
 8000016:	f850 2b04 	ldrcc.w	r2, [r0], #4
	strlo	r2, [r1], #4
 800001a:	f841 2b04 	strcc.w	r2, [r1], #4
	blo		1b
 800001e:	d3f8      	bcc.n	8000012 <__start+0xa>



2:
	ldr		r1, =__ZI_LIMIT__
 8000020:	4908      	ldr	r1, [pc, #32]	; (8000044 <__start+0x3c>)
	mov		r2, #0x0
 8000022:	f04f 0200 	mov.w	r2, #0
3:

	@ BSS 초기화 코드 작성
	cmp 	r3, r1
 8000026:	428b      	cmp	r3, r1
	it		lo
 8000028:	bf38      	it	cc
	strlo	r2, [r3], #4
 800002a:	f843 2b04 	strcc.w	r2, [r3], #4
	blo		3b
 800002e:	d3fa      	bcc.n	8000026 <__start+0x1e>

	.extern Main

	bl		Main
 8000030:	f000 f80a 	bl	8000048 <Main>

	b		.
 8000034:	e7fe      	b.n	8000034 <__start+0x2c>
 8000036:	00d80000 	sbcseq	r0, r8, r0
	.extern __RO_LIMIT__
	.extern __RW_BASE__
	.extern __ZI_BASE__
	.extern __ZI_LIMIT__

	ldr		r0, =__RO_LIMIT__
 800003a:	00000800 	andeq	r0, r0, r0, lsl #16
	ldr		r1, =__RW_BASE__
 800003e:	00002000 	andeq	r2, r0, r0
	ldr		r3, =__ZI_BASE__
 8000042:	00002000 	andeq	r2, r0, r0
	blo		1b



2:
	ldr		r1, =__ZI_LIMIT__
 8000046:	b4702000 	ldrbtlt	r2, [r0], #-0

08000048 <Main>:
#define RCC_APB2ENR   (*(volatile unsigned long*)0x40021018)
#define GPIOB_CRH     (*(volatile unsigned long*)0x40010C04)
#define GPIOB_ODR     (*(volatile unsigned long*)0x40010C0C)

void Main(void)
{
 8000048:	b470      	push	{r4, r5, r6}
  RCC_APB2ENR |= (1<<3);
 800004a:	f241 0118 	movw	r1, #4120	; 0x1018
 800004e:	f2c4 0102 	movt	r1, #16386	; 0x4002
 8000052:	680e      	ldr	r6, [r1, #0]
  GPIOB_CRH = 0x66 << 0;
 8000054:	f640 4004 	movw	r0, #3076	; 0xc04
  GPIOB_ODR = 0x01 << 8;
 8000058:	f640 420c 	movw	r2, #3084	; 0xc0c
 800005c:	f2c4 0201 	movt	r2, #16385	; 0x4001
 8000060:	f44f 7480 	mov.w	r4, #256	; 0x100
#define GPIOB_CRH     (*(volatile unsigned long*)0x40010C04)
#define GPIOB_ODR     (*(volatile unsigned long*)0x40010C0C)

void Main(void)
{
  RCC_APB2ENR |= (1<<3);
 8000064:	f046 0608 	orr.w	r6, r6, #8
  GPIOB_CRH = 0x66 << 0;
 8000068:	f2c4 0001 	movt	r0, #16385	; 0x4001
 800006c:	2566      	movs	r5, #102	; 0x66
  GPIOB_ODR = 0x01 << 8;
  volatile int i;
  for (;;)
  {
  for(i=0;i<100000;i++)
 800006e:	f248 639f 	movw	r3, #34463	; 0x869f
#define GPIOB_CRH     (*(volatile unsigned long*)0x40010C04)
#define GPIOB_ODR     (*(volatile unsigned long*)0x40010C0C)

void Main(void)
{
  RCC_APB2ENR |= (1<<3);
 8000072:	600e      	str	r6, [r1, #0]
#define RCC_APB2ENR   (*(volatile unsigned long*)0x40021018)
#define GPIOB_CRH     (*(volatile unsigned long*)0x40010C04)
#define GPIOB_ODR     (*(volatile unsigned long*)0x40010C0C)

void Main(void)
{
 8000074:	b083      	sub	sp, #12
  RCC_APB2ENR |= (1<<3);
  GPIOB_CRH = 0x66 << 0;
 8000076:	6005      	str	r5, [r0, #0]
  volatile int i;
  for (;;)
  {
  for(i=0;i<100000;i++)
  {
      GPIOB_ODR = 0x01 << 8;
 8000078:	4611      	mov	r1, r2

void Main(void)
{
  RCC_APB2ENR |= (1<<3);
  GPIOB_CRH = 0x66 << 0;
  GPIOB_ODR = 0x01 << 8;
 800007a:	6014      	str	r4, [r2, #0]
  volatile int i;
  for (;;)
  {
  for(i=0;i<100000;i++)
 800007c:	f2c0 0301 	movt	r3, #1
 8000080:	2400      	movs	r4, #0
 8000082:	9401      	str	r4, [sp, #4]
 8000084:	9a01      	ldr	r2, [sp, #4]
 8000086:	429a      	cmp	r2, r3
  {
      GPIOB_ODR = 0x01 << 8;
 8000088:	bfd8      	it	le
 800008a:	f44f 7080 	movle.w	r0, #256	; 0x100
  GPIOB_CRH = 0x66 << 0;
  GPIOB_ODR = 0x01 << 8;
  volatile int i;
  for (;;)
  {
  for(i=0;i<100000;i++)
 800008e:	dc06      	bgt.n	800009e <Main+0x56>
  {
      GPIOB_ODR = 0x01 << 8;
 8000090:	6008      	str	r0, [r1, #0]
  GPIOB_CRH = 0x66 << 0;
  GPIOB_ODR = 0x01 << 8;
  volatile int i;
  for (;;)
  {
  for(i=0;i<100000;i++)
 8000092:	9a01      	ldr	r2, [sp, #4]
 8000094:	3201      	adds	r2, #1
 8000096:	9201      	str	r2, [sp, #4]
 8000098:	9a01      	ldr	r2, [sp, #4]
 800009a:	429a      	cmp	r2, r3
 800009c:	ddf8      	ble.n	8000090 <Main+0x48>
  {
      GPIOB_ODR = 0x01 << 8;
  };
  for(i=0;i<100000;i++)
 800009e:	9401      	str	r4, [sp, #4]
 80000a0:	9a01      	ldr	r2, [sp, #4]
 80000a2:	429a      	cmp	r2, r3
  {
      GPIOB_ODR = 0x03 << 8;
 80000a4:	bfd8      	it	le
 80000a6:	f44f 7040 	movle.w	r0, #768	; 0x300
  {
  for(i=0;i<100000;i++)
  {
      GPIOB_ODR = 0x01 << 8;
  };
  for(i=0;i<100000;i++)
 80000aa:	dc06      	bgt.n	80000ba <Main+0x72>
  {
      GPIOB_ODR = 0x03 << 8;
 80000ac:	6008      	str	r0, [r1, #0]
  {
  for(i=0;i<100000;i++)
  {
      GPIOB_ODR = 0x01 << 8;
  };
  for(i=0;i<100000;i++)
 80000ae:	9a01      	ldr	r2, [sp, #4]
 80000b0:	3201      	adds	r2, #1
 80000b2:	9201      	str	r2, [sp, #4]
 80000b4:	9a01      	ldr	r2, [sp, #4]
 80000b6:	429a      	cmp	r2, r3
 80000b8:	ddf8      	ble.n	80000ac <Main+0x64>
  {
      GPIOB_ODR = 0x03 << 8;
  };
  for(i=0;i<100000;i++)
 80000ba:	9401      	str	r4, [sp, #4]
 80000bc:	9a01      	ldr	r2, [sp, #4]
 80000be:	429a      	cmp	r2, r3
  {
      GPIOB_ODR = 0x00 << 8;
 80000c0:	bfd8      	it	le
 80000c2:	2000      	movle	r0, #0
  };
  for(i=0;i<100000;i++)
  {
      GPIOB_ODR = 0x03 << 8;
  };
  for(i=0;i<100000;i++)
 80000c4:	dcdd      	bgt.n	8000082 <Main+0x3a>
  {
      GPIOB_ODR = 0x00 << 8;
 80000c6:	6008      	str	r0, [r1, #0]
  };
  for(i=0;i<100000;i++)
  {
      GPIOB_ODR = 0x03 << 8;
  };
  for(i=0;i<100000;i++)
 80000c8:	9a01      	ldr	r2, [sp, #4]
 80000ca:	3201      	adds	r2, #1
 80000cc:	9201      	str	r2, [sp, #4]
 80000ce:	9a01      	ldr	r2, [sp, #4]
 80000d0:	429a      	cmp	r2, r3
 80000d2:	ddf8      	ble.n	80000c6 <Main+0x7e>
 80000d4:	e7d5      	b.n	8000082 <Main+0x3a>
 80000d6:	bf00      	nop
